; Function Attrs: mustprogress nounwind uwtable
define dso_local void @_ZN6v8impl9ReferenceD0Ev(ptr noundef nonnull align 8 dereferenceable(81) %this) unnamed_addr #3 align 2 {
entry:
  store ptr getelementptr inbounds ({ [5 x ptr], [5 x ptr] }, ptr @_ZTVN6v8impl9ReferenceE, i64 0, i32 0, i64 2), ptr %this, align 8
  %add.ptr.i = getelementptr inbounds i8, ptr %this, i64 40
  store ptr getelementptr inbounds ({ [5 x ptr], [5 x ptr] }, ptr @_ZTVN6v8impl9ReferenceE, i64 0, i32 1, i64 2), ptr %add.ptr.i, align 8
  %persistent_.i = getelementptr inbounds i8, ptr %this, i64 72
  %0 = load ptr, ptr %persistent_.i, align 8
  %cmp.i9.i = icmp eq ptr %0, null
  br i1 %cmp.i9.i, label %_ZN2v86GlobalINS_5ValueEED2Ev.exit.i, label %if.end.i.i

if.end.i.i:                                       ; preds = %entry
  tail call void @_ZN2v812api_internal13DisposeGlobalEPm(ptr noundef nonnull %0) #24
  store ptr null, ptr %persistent_.i, align 8
  br label %_ZN2v86GlobalINS_5ValueEED2Ev.exit.i

_ZN2v86GlobalINS_5ValueEED2Ev.exit.i:             ; preds = %if.end.i.i, %entry
  store ptr getelementptr inbounds ({ [5 x ptr], [5 x ptr] }, ptr @_ZTVN6v8impl16TrackedFinalizerE, i64 0, i32 0, i64 2), ptr %this, align 8
  store ptr getelementptr inbounds ({ [5 x ptr], [5 x ptr] }, ptr @_ZTVN6v8impl16TrackedFinalizerE, i64 0, i32 1, i64 2), ptr %add.ptr.i, align 8
  %prev_.i.i.i.i = getelementptr inbounds i8, ptr %this, i64 56
  %1 = load ptr, ptr %prev_.i.i.i.i, align 8
  %cmp.not.i.i.i.i = icmp eq ptr %1, null
  %next_4.phi.trans.insert.i.i.i.i = getelementptr inbounds i8, ptr %this, i64 48
  %.pre.i.i.i.i = load ptr, ptr %next_4.phi.trans.insert.i.i.i.i, align 8
  br i1 %cmp.not.i.i.i.i, label %if.end.i.i.i.i, label %if.then.i.i.i.i

if.then.i.i.i.i:                                  ; preds = %_ZN2v86GlobalINS_5ValueEED2Ev.exit.i
  %next_3.i.i.i.i = getelementptr inbounds i8, ptr %1, i64 8
  store ptr %.pre.i.i.i.i, ptr %next_3.i.i.i.i, align 8
  br label %if.end.i.i.i.i

if.end.i.i.i.i:                                   ; preds = %if.then.i.i.i.i, %_ZN2v86GlobalINS_5ValueEED2Ev.exit.i
  %cmp5.not.i.i.i.i = icmp eq ptr %.pre.i.i.i.i, null
  br i1 %cmp5.not.i.i.i.i, label %_ZN6v8impl9ReferenceD2Ev.exit, label %if.then6.i.i.i.i

if.then6.i.i.i.i:                                 ; preds = %if.end.i.i.i.i
  %2 = load ptr, ptr %prev_.i.i.i.i, align 8
  %prev_9.i.i.i.i = getelementptr inbounds i8, ptr %.pre.i.i.i.i, i64 16
  store ptr %2, ptr %prev_9.i.i.i.i, align 8
  br label %_ZN6v8impl9ReferenceD2Ev.exit

_ZN6v8impl9ReferenceD2Ev.exit:                    ; preds = %if.end.i.i.i.i, %if.then6.i.i.i.i
  tail call void @llvm.memset.p0.i64(ptr noundef nonnull align 8 dereferenceable(16) %next_4.phi.trans.insert.i.i.i.i, i8 0, i64 16, i1 false)
  %env_.i.i.i = getelementptr inbounds i8, ptr %this, i64 8
  %3 = load ptr, ptr %env_.i.i.i, align 8
  %vtable.i.i.i = load ptr, ptr %3, align 8
  %vfn.i.i.i = getelementptr inbounds i8, ptr %vtable.i.i.i, i64 24
  %4 = load ptr, ptr %vfn.i.i.i, align 8
  tail call void %4(ptr noundef nonnull align 8 dereferenceable(189) %3, ptr noundef nonnull %add.ptr.i) #24
  tail call void @_ZdlPv(ptr noundef nonnull %this) #26
  ret void
}